target datalayout = "e-m:e-p270:32:32-p271:32:32-p272:64:64-i64:64-i128:128-f80:128-n8:16:32:64-S128"
target triple = "x86_64-pc-linux-gnu"

%struct.hwloc_topology = type { i32, i32, i32, ptr, ptr, i64, [20 x i32], [20 x i32], i64, i64, i32, ptr, i64, ptr, i64, [6 x %struct.hwloc_special_level_s], ptr, ptr, %struct.hwloc_binding_hooks, %struct.hwloc_topology_support, %struct.hwloc_infos_s, ptr, ptr, i32, ptr, ptr, i32, i32, ptr, i32, i32, ptr, i32, i32, i32, [5 x float], i32, ptr, ptr, i32, i32, ptr, i32, %struct.hwloc_numanode_attr_s, i32, i32, ptr, i64, i32, ptr, ptr, ptr }
%struct.hwloc_special_level_s = type { i32, ptr, ptr, ptr }
%struct.hwloc_binding_hooks = type { ptr, ptr, ptr, ptr, ptr, ptr, ptr, ptr, ptr, ptr, ptr, ptr, ptr, ptr, ptr, ptr, ptr, ptr, ptr, ptr, ptr, ptr, ptr, ptr }
%struct.hwloc_topology_support = type { ptr, ptr, ptr, ptr }
%struct.hwloc_infos_s = type { ptr, i32, i32 }
%struct.hwloc_numanode_attr_s = type { i64, i32, ptr }
%struct.hwloc_obj = type { i32, ptr, i32, ptr, i64, ptr, i32, i32, ptr, ptr, ptr, i32, ptr, ptr, i32, ptr, ptr, ptr, i32, i32, ptr, i32, ptr, i32, ptr, ptr, ptr, ptr, ptr, %struct.hwloc_infos_s, ptr, i64 }

@.str.1 = private unnamed_addr constant [3 x i8] c"%s\00", align 1
@.str.82 = private unnamed_addr constant [43 x i8] c"\0ARemoving object during restrict by cpuset\00", align 1

; Function Attrs: nounwind uwtable
define hidden void @hwloc_free_object_siblings_and_children(ptr noundef %0) #0 {
  %2 = alloca ptr, align 8
  store ptr %0, ptr %2, align 8, !tbaa !37
  br label %3

3:                                                ; preds = %6, %1
  %4 = load ptr, ptr %2, align 8, !tbaa !37
  %5 = icmp ne ptr %4, null
  br i1 %5, label %6, label %7

6:                                                ; preds = %3
  call void @unlink_and_free_object_and_children(ptr noundef %2)
  br label %3, !llvm.loop !83

7:                                                ; preds = %3
  ret void
}

; Function Attrs: inlinehint nounwind uwtable
define internal void @hwloc_debug(ptr noundef %0, ...) #4 {
  %2 = alloca ptr, align 8
  store ptr %0, ptr %2, align 8, !tbaa !34
  ret void
}

; Function Attrs: nounwind uwtable
define internal void @restrict_object_by_cpuset(ptr noundef %0, i64 noundef %1, ptr noundef %2, ptr noundef %3, ptr noundef %4) #0 {
  %6 = alloca ptr, align 8
  %7 = alloca i64, align 8
  %8 = alloca ptr, align 8
  %9 = alloca ptr, align 8
  %10 = alloca ptr, align 8
  %11 = alloca ptr, align 8
  %12 = alloca ptr, align 8
  %13 = alloca ptr, align 8
  %14 = alloca i32, align 4
  store ptr %0, ptr %6, align 8, !tbaa !3
  store i64 %1, ptr %7, align 8, !tbaa !36
  store ptr %2, ptr %8, align 8, !tbaa !52
  store ptr %3, ptr %9, align 8, !tbaa !179
  store ptr %4, ptr %10, align 8, !tbaa !179
  call void @llvm.lifetime.start.p0(i64 8, ptr %11) #14
  %15 = load ptr, ptr %8, align 8, !tbaa !52
  %16 = load ptr, ptr %15, align 8, !tbaa !37
  store ptr %16, ptr %11, align 8, !tbaa !37
  call void @llvm.lifetime.start.p0(i64 8, ptr %12) #14
  call void @llvm.lifetime.start.p0(i64 8, ptr %13) #14
  call void @llvm.lifetime.start.p0(i64 4, ptr %14) #14
  store i32 0, ptr %14, align 4, !tbaa !33
  %17 = load ptr, ptr %11, align 8, !tbaa !37
  %18 = getelementptr inbounds nuw %struct.hwloc_obj, ptr %17, i32 0, i32 26
  %19 = load ptr, ptr %18, align 8, !tbaa !53
  %20 = load ptr, ptr %9, align 8, !tbaa !179
  %21 = call i32 @hwloc_bitmap_intersects(ptr noundef %19, ptr noundef %20) #15
  %22 = icmp ne i32 %21, 0
  br i1 %22, label %23, label %40

23:                                               ; preds = %5
  %24 = load ptr, ptr %11, align 8, !tbaa !37
  %25 = getelementptr inbounds nuw %struct.hwloc_obj, ptr %24, i32 0, i32 25
  %26 = load ptr, ptr %25, align 8, !tbaa !39
  %27 = load ptr, ptr %11, align 8, !tbaa !37
  %28 = getelementptr inbounds nuw %struct.hwloc_obj, ptr %27, i32 0, i32 25
  %29 = load ptr, ptr %28, align 8, !tbaa !39
  %30 = load ptr, ptr %9, align 8, !tbaa !179
  %31 = call i32 @hwloc_bitmap_andnot(ptr noundef %26, ptr noundef %29, ptr noundef %30)
  %32 = load ptr, ptr %11, align 8, !tbaa !37
  %33 = getelementptr inbounds nuw %struct.hwloc_obj, ptr %32, i32 0, i32 26
  %34 = load ptr, ptr %33, align 8, !tbaa !53
  %35 = load ptr, ptr %11, align 8, !tbaa !37
  %36 = getelementptr inbounds nuw %struct.hwloc_obj, ptr %35, i32 0, i32 26
  %37 = load ptr, ptr %36, align 8, !tbaa !53
  %38 = load ptr, ptr %9, align 8, !tbaa !179
  %39 = call i32 @hwloc_bitmap_andnot(ptr noundef %34, ptr noundef %37, ptr noundef %38)
  store i32 1, ptr %14, align 4, !tbaa !33
  br label %40

40:                                               ; preds = %23, %5
  %41 = load ptr, ptr %10, align 8, !tbaa !179
  %42 = icmp ne ptr %41, null
  br i1 %42, label %43, label %67

43:                                               ; preds = %40
  %44 = load ptr, ptr %11, align 8, !tbaa !37
  %45 = getelementptr inbounds nuw %struct.hwloc_obj, ptr %44, i32 0, i32 28
  %46 = load ptr, ptr %45, align 8, !tbaa !77
  %47 = load ptr, ptr %10, align 8, !tbaa !179
  %48 = call i32 @hwloc_bitmap_intersects(ptr noundef %46, ptr noundef %47) #15
  %49 = icmp ne i32 %48, 0
  br i1 %49, label %50, label %67

50:                                               ; preds = %43
  %51 = load ptr, ptr %11, align 8, !tbaa !37
  %52 = getelementptr inbounds nuw %struct.hwloc_obj, ptr %51, i32 0, i32 27
  %53 = load ptr, ptr %52, align 8, !tbaa !76
  %54 = load ptr, ptr %11, align 8, !tbaa !37
  %55 = getelementptr inbounds nuw %struct.hwloc_obj, ptr %54, i32 0, i32 27
  %56 = load ptr, ptr %55, align 8, !tbaa !76
  %57 = load ptr, ptr %10, align 8, !tbaa !179
  %58 = call i32 @hwloc_bitmap_andnot(ptr noundef %53, ptr noundef %56, ptr noundef %57)
  %59 = load ptr, ptr %11, align 8, !tbaa !37
  %60 = getelementptr inbounds nuw %struct.hwloc_obj, ptr %59, i32 0, i32 28
  %61 = load ptr, ptr %60, align 8, !tbaa !77
  %62 = load ptr, ptr %11, align 8, !tbaa !37
  %63 = getelementptr inbounds nuw %struct.hwloc_obj, ptr %62, i32 0, i32 28
  %64 = load ptr, ptr %63, align 8, !tbaa !77
  %65 = load ptr, ptr %10, align 8, !tbaa !179
  %66 = call i32 @hwloc_bitmap_andnot(ptr noundef %61, ptr noundef %64, ptr noundef %65)
  store i32 1, ptr %14, align 4, !tbaa !33
  br label %67

67:                                               ; preds = %50, %43, %40
  %68 = load i32, ptr %14, align 4, !tbaa !33
  %69 = icmp ne i32 %68, 0
  br i1 %69, label %70, label %124

70:                                               ; preds = %67
  %71 = load ptr, ptr %11, align 8, !tbaa !37
  %72 = getelementptr inbounds nuw %struct.hwloc_obj, ptr %71, i32 0, i32 16
  store ptr %72, ptr %13, align 8, !tbaa !52
  %73 = load ptr, ptr %13, align 8, !tbaa !52
  %74 = load ptr, ptr %73, align 8, !tbaa !37
  store ptr %74, ptr %12, align 8, !tbaa !37
  br label %75

75:                                               ; preds = %93, %70
  %76 = load ptr, ptr %12, align 8, !tbaa !37
  %77 = icmp ne ptr %76, null
  br i1 %77, label %78, label %96

78:                                               ; preds = %75
  %79 = load ptr, ptr %6, align 8, !tbaa !3
  %80 = load i64, ptr %7, align 8, !tbaa !36
  %81 = load ptr, ptr %13, align 8, !tbaa !52
  %82 = load ptr, ptr %9, align 8, !tbaa !179
  %83 = load ptr, ptr %10, align 8, !tbaa !179
  call void @restrict_object_by_cpuset(ptr noundef %79, i64 noundef %80, ptr noundef %81, ptr noundef %82, ptr noundef %83)
  br label %84

84:                                               ; preds = %78
  %85 = load ptr, ptr %13, align 8, !tbaa !52
  %86 = load ptr, ptr %85, align 8, !tbaa !37
  %87 = load ptr, ptr %12, align 8, !tbaa !37
  %88 = icmp eq ptr %86, %87
  br i1 %88, label %89, label %92

89:                                               ; preds = %84
  %90 = load ptr, ptr %12, align 8, !tbaa !37
  %91 = getelementptr inbounds nuw %struct.hwloc_obj, ptr %90, i32 0, i32 12
  store ptr %91, ptr %13, align 8, !tbaa !52
  br label %93

92:                                               ; preds = %84
  br label %93

93:                                               ; preds = %92, %89
  %94 = load ptr, ptr %13, align 8, !tbaa !52
  %95 = load ptr, ptr %94, align 8, !tbaa !37
  store ptr %95, ptr %12, align 8, !tbaa !37
  br label %75, !llvm.loop !225

96:                                               ; preds = %75
  %97 = load ptr, ptr %11, align 8, !tbaa !37
  call void @hwloc__reorder_children(ptr noundef %97)
  %98 = load ptr, ptr %11, align 8, !tbaa !37
  %99 = getelementptr inbounds nuw %struct.hwloc_obj, ptr %98, i32 0, i32 20
  store ptr %99, ptr %13, align 8, !tbaa !52
  %100 = load ptr, ptr %13, align 8, !tbaa !52
  %101 = load ptr, ptr %100, align 8, !tbaa !37
  store ptr %101, ptr %12, align 8, !tbaa !37
  br label %102

102:                                              ; preds = %120, %96
  %103 = load ptr, ptr %12, align 8, !tbaa !37
  %104 = icmp ne ptr %103, null
  br i1 %104, label %105, label %123

105:                                              ; preds = %102
  %106 = load ptr, ptr %6, align 8, !tbaa !3
  %107 = load i64, ptr %7, align 8, !tbaa !36
  %108 = load ptr, ptr %13, align 8, !tbaa !52
  %109 = load ptr, ptr %9, align 8, !tbaa !179
  %110 = load ptr, ptr %10, align 8, !tbaa !179
  call void @restrict_object_by_cpuset(ptr noundef %106, i64 noundef %107, ptr noundef %108, ptr noundef %109, ptr noundef %110)
  br label %111

111:                                              ; preds = %105
  %112 = load ptr, ptr %13, align 8, !tbaa !52
  %113 = load ptr, ptr %112, align 8, !tbaa !37
  %114 = load ptr, ptr %12, align 8, !tbaa !37
  %115 = icmp eq ptr %113, %114
  br i1 %115, label %116, label %119

116:                                              ; preds = %111
  %117 = load ptr, ptr %12, align 8, !tbaa !37
  %118 = getelementptr inbounds nuw %struct.hwloc_obj, ptr %117, i32 0, i32 12
  store ptr %118, ptr %13, align 8, !tbaa !52
  br label %120

119:                                              ; preds = %111
  br label %120

120:                                              ; preds = %119, %116
  %121 = load ptr, ptr %13, align 8, !tbaa !52
  %122 = load ptr, ptr %121, align 8, !tbaa !37
  store ptr %122, ptr %12, align 8, !tbaa !37
  br label %102, !llvm.loop !226

123:                                              ; preds = %102
  br label %124

124:                                              ; preds = %123, %67
  %125 = load ptr, ptr %11, align 8, !tbaa !37
  %126 = getelementptr inbounds nuw %struct.hwloc_obj, ptr %125, i32 0, i32 16
  %127 = load ptr, ptr %126, align 8, !tbaa !130
  %128 = icmp ne ptr %127, null
  br i1 %128, label %176, label %129

129:                                              ; preds = %124
  %130 = load ptr, ptr %11, align 8, !tbaa !37
  %131 = getelementptr inbounds nuw %struct.hwloc_obj, ptr %130, i32 0, i32 20
  %132 = load ptr, ptr %131, align 8, !tbaa !132
  %133 = icmp ne ptr %132, null
  br i1 %133, label %176, label %134

134:                                              ; preds = %129
  %135 = load ptr, ptr %11, align 8, !tbaa !37
  %136 = getelementptr inbounds nuw %struct.hwloc_obj, ptr %135, i32 0, i32 25
  %137 = load ptr, ptr %136, align 8, !tbaa !39
  %138 = call i32 @hwloc_bitmap_iszero(ptr noundef %137) #15
  %139 = icmp ne i32 %138, 0
  br i1 %139, label %140, label %176

140:                                              ; preds = %134
  %141 = load ptr, ptr %11, align 8, !tbaa !37
  %142 = getelementptr inbounds nuw %struct.hwloc_obj, ptr %141, i32 0, i32 0
  %143 = load i32, ptr %142, align 8, !tbaa !46
  %144 = icmp ne i32 %143, 14
  br i1 %144, label %149, label %145

145:                                              ; preds = %140
  %146 = load i64, ptr %7, align 8, !tbaa !36
  %147 = and i64 %146, 1
  %148 = icmp ne i64 %147, 0
  br i1 %148, label %149, label %176

149:                                              ; preds = %145, %140
  call void (ptr, ...) @hwloc_debug(ptr noundef @.str.1, ptr noundef @.str.82)
  br label %150

150:                                              ; preds = %149
  br label %151

151:                                              ; preds = %150
  br label %152

152:                                              ; preds = %151
  %153 = load i64, ptr %7, align 8, !tbaa !36
  %154 = and i64 %153, 4
  %155 = icmp ne i64 %154, 0
  br i1 %155, label %162, label %156

156:                                              ; preds = %152
  %157 = load ptr, ptr %11, align 8, !tbaa !37
  %158 = getelementptr inbounds nuw %struct.hwloc_obj, ptr %157, i32 0, i32 22
  %159 = load ptr, ptr %158, align 8, !tbaa !134
  call void @hwloc_free_object_siblings_and_children(ptr noundef %159)
  %160 = load ptr, ptr %11, align 8, !tbaa !37
  %161 = getelementptr inbounds nuw %struct.hwloc_obj, ptr %160, i32 0, i32 22
  store ptr null, ptr %161, align 8, !tbaa !134
  br label %162

162:                                              ; preds = %156, %152
  %163 = load i64, ptr %7, align 8, !tbaa !36
  %164 = and i64 %163, 2
  %165 = icmp ne i64 %164, 0
  br i1 %165, label %172, label %166

166:                                              ; preds = %162
  %167 = load ptr, ptr %11, align 8, !tbaa !37
  %168 = getelementptr inbounds nuw %struct.hwloc_obj, ptr %167, i32 0, i32 24
  %169 = load ptr, ptr %168, align 8, !tbaa !136
  call void @hwloc_free_object_siblings_and_children(ptr noundef %169)
  %170 = load ptr, ptr %11, align 8, !tbaa !37
  %171 = getelementptr inbounds nuw %struct.hwloc_obj, ptr %170, i32 0, i32 24
  store ptr null, ptr %171, align 8, !tbaa !136
  br label %172

172:                                              ; preds = %166, %162
  %173 = load ptr, ptr %8, align 8, !tbaa !52
  call void @unlink_and_free_single_object(ptr noundef %173)
  %174 = load ptr, ptr %6, align 8, !tbaa !3
  %175 = getelementptr inbounds nuw %struct.hwloc_topology, ptr %174, i32 0, i32 9
  store i64 1, ptr %175, align 8, !tbaa !107
  br label %176

176:                                              ; preds = %172, %145, %134, %129, %124
  call void @llvm.lifetime.end.p0(i64 4, ptr %14) #14
  call void @llvm.lifetime.end.p0(i64 8, ptr %13) #14
  call void @llvm.lifetime.end.p0(i64 8, ptr %12) #14
  call void @llvm.lifetime.end.p0(i64 8, ptr %11) #14
  ret void
}