; Function Attrs: nounwind uwtable
define internal fastcc void @restrict_object_by_cpuset(ptr noundef %0, i64 noundef %1, ptr noundef captures(none) %2, ptr noundef nonnull %3, ptr noundef %4) unnamed_addr #5 {
  %6 = alloca ptr, align 8
  %7 = alloca ptr, align 8
  %8 = load ptr, ptr %2, align 8, !tbaa !50
  %9 = getelementptr inbounds nuw i8, ptr %8, i64 192
  %10 = load ptr, ptr %9, align 8, !tbaa !54
  %11 = tail call i32 @hwloc_bitmap_intersects(ptr noundef %10, ptr noundef nonnull %3) #36
  %.not = icmp eq i32 %11, 0
  br i1 %.not, label %18, label %12

12:                                               ; preds = %5
  %13 = getelementptr inbounds nuw i8, ptr %8, i64 184
  %14 = load ptr, ptr %13, align 8, !tbaa !45
  %15 = tail call i32 @hwloc_bitmap_andnot(ptr noundef %14, ptr noundef %14, ptr noundef nonnull %3) #34
  %16 = load ptr, ptr %9, align 8, !tbaa !54
  %17 = tail call i32 @hwloc_bitmap_andnot(ptr noundef %16, ptr noundef %16, ptr noundef nonnull %3) #34
  br label %18

18:                                               ; preds = %12, %5
  %.not61 = icmp eq ptr %4, null
  br i1 %.not61, label %28, label %19

19:                                               ; preds = %18
  %20 = getelementptr inbounds nuw i8, ptr %8, i64 208
  %21 = load ptr, ptr %20, align 8, !tbaa !84
  %22 = tail call i32 @hwloc_bitmap_intersects(ptr noundef %21, ptr noundef nonnull %4) #36
  %.not62 = icmp eq i32 %22, 0
  br i1 %.not62, label %28, label %.thread

.thread:                                          ; preds = %19
  %23 = getelementptr inbounds nuw i8, ptr %8, i64 200
  %24 = load ptr, ptr %23, align 8, !tbaa !83
  %25 = tail call i32 @hwloc_bitmap_andnot(ptr noundef %24, ptr noundef %24, ptr noundef nonnull %4) #34
  %26 = load ptr, ptr %20, align 8, !tbaa !84
  %27 = tail call i32 @hwloc_bitmap_andnot(ptr noundef %26, ptr noundef %26, ptr noundef nonnull %4) #34
  br label %29

28:                                               ; preds = %19, %18
  br i1 %.not, label %.loopexit, label %29

29:                                               ; preds = %.thread, %28
  %30 = getelementptr inbounds nuw i8, ptr %8, i64 120
  %.05881 = load ptr, ptr %30, align 8, !tbaa !50
  %.not6482 = icmp eq ptr %.05881, null
  br i1 %.not6482, label %._crit_edge, label %.lr.ph

.lr.ph:                                           ; preds = %29, %.lr.ph
  %.05884 = phi ptr [ %.058, %.lr.ph ], [ %.05881, %29 ]
  %.05683 = phi ptr [ %spec.select, %.lr.ph ], [ %30, %29 ]
  tail call fastcc void @restrict_object_by_cpuset(ptr noundef %0, i64 noundef %1, ptr noundef nonnull %.05683, ptr noundef %3, ptr noundef %4)
  %31 = load ptr, ptr %.05683, align 8, !tbaa !50
  %32 = icmp eq ptr %31, %.05884
  %33 = getelementptr inbounds nuw i8, ptr %.05884, i64 88
  %spec.select = select i1 %32, ptr %33, ptr %.05683
  %.058 = load ptr, ptr %spec.select, align 8, !tbaa !50
  %.not64 = icmp eq ptr %.058, null
  br i1 %.not64, label %._crit_edge, label %.lr.ph, !llvm.loop !217

._crit_edge:                                      ; preds = %.lr.ph, %29
  tail call void @hwloc__reorder_children(ptr noundef %8)
  %34 = getelementptr inbounds nuw i8, ptr %8, i64 144
  %.15985 = load ptr, ptr %34, align 8, !tbaa !50
  %.not6586 = icmp eq ptr %.15985, null
  br i1 %.not6586, label %.loopexit, label %.lr.ph90

.lr.ph90:                                         ; preds = %._crit_edge, %.lr.ph90
  %.15988 = phi ptr [ %.159, %.lr.ph90 ], [ %.15985, %._crit_edge ]
  %.287 = phi ptr [ %spec.select73, %.lr.ph90 ], [ %34, %._crit_edge ]
  tail call fastcc void @restrict_object_by_cpuset(ptr noundef %0, i64 noundef %1, ptr noundef nonnull %.287, ptr noundef %3, ptr noundef %4)
  %35 = load ptr, ptr %.287, align 8, !tbaa !50
  %36 = icmp eq ptr %35, %.15988
  %37 = getelementptr inbounds nuw i8, ptr %.15988, i64 88
  %spec.select73 = select i1 %36, ptr %37, ptr %.287
  %.159 = load ptr, ptr %spec.select73, align 8, !tbaa !50
  %.not65 = icmp eq ptr %.159, null
  br i1 %.not65, label %.loopexit, label %.lr.ph90, !llvm.loop !218

.loopexit:                                        ; preds = %.lr.ph90, %._crit_edge, %28
  %38 = getelementptr inbounds nuw i8, ptr %8, i64 120
  %39 = load ptr, ptr %38, align 8, !tbaa !55
  %.not66 = icmp eq ptr %39, null
  br i1 %.not66, label %40, label %62

40:                                               ; preds = %.loopexit
  %41 = getelementptr inbounds nuw i8, ptr %8, i64 144
  %42 = load ptr, ptr %41, align 8, !tbaa !57
  %.not67 = icmp eq ptr %42, null
  br i1 %.not67, label %43, label %62

43:                                               ; preds = %40
  %44 = getelementptr inbounds nuw i8, ptr %8, i64 184
  %45 = load ptr, ptr %44, align 8, !tbaa !45
  %46 = tail call i32 @hwloc_bitmap_iszero(ptr noundef %45) #36
  %.not68 = icmp eq i32 %46, 0
  br i1 %.not68, label %62, label %47

47:                                               ; preds = %43
  %48 = load i32, ptr %8, align 8, !tbaa !35
  %.not69 = icmp eq i32 %48, 14
  %49 = and i64 %1, 1
  %.not70 = icmp eq i64 %49, 0
  %or.cond = and i1 %.not70, %.not69
  br i1 %or.cond, label %62, label %50

50:                                               ; preds = %47
  %51 = and i64 %1, 4
  %.not71 = icmp eq i64 %51, 0
  br i1 %.not71, label %52, label %55

52:                                               ; preds = %50
  %53 = getelementptr inbounds nuw i8, ptr %8, i64 160
  %54 = load ptr, ptr %53, align 8, !tbaa !58
  call void @llvm.lifetime.start.p0(i64 8, ptr nonnull %7)
  store ptr %54, ptr %7, align 8, !tbaa !50
  %.not1.i = icmp eq ptr %54, null
  br i1 %.not1.i, label %hwloc_free_object_siblings_and_children.exit, label %.lr.ph.i

.lr.ph.i:                                         ; preds = %52, %.lr.ph.i
  call fastcc void @unlink_and_free_object_and_children(ptr noundef nonnull %7)
  %.pr.i = load ptr, ptr %7, align 8, !tbaa !50
  %.not.i = icmp eq ptr %.pr.i, null
  br i1 %.not.i, label %hwloc_free_object_siblings_and_children.exit, label %.lr.ph.i, !llvm.loop !89

hwloc_free_object_siblings_and_children.exit:     ; preds = %.lr.ph.i, %52
  call void @llvm.lifetime.end.p0(i64 8, ptr nonnull %7)
  store ptr null, ptr %53, align 8, !tbaa !58
  br label %55

55:                                               ; preds = %hwloc_free_object_siblings_and_children.exit, %50
  %56 = and i64 %1, 2
  %.not72 = icmp eq i64 %56, 0
  br i1 %.not72, label %57, label %60

57:                                               ; preds = %55
  %58 = getelementptr inbounds nuw i8, ptr %8, i64 176
  %59 = load ptr, ptr %58, align 8, !tbaa !59
  call void @llvm.lifetime.start.p0(i64 8, ptr nonnull %6)
  store ptr %59, ptr %6, align 8, !tbaa !50
  %.not1.i74 = icmp eq ptr %59, null
  br i1 %.not1.i74, label %hwloc_free_object_siblings_and_children.exit78, label %.lr.ph.i75

.lr.ph.i75:                                       ; preds = %57, %.lr.ph.i75
  call fastcc void @unlink_and_free_object_and_children(ptr noundef nonnull %6)
  %.pr.i76 = load ptr, ptr %6, align 8, !tbaa !50
  %.not.i77 = icmp eq ptr %.pr.i76, null
  br i1 %.not.i77, label %hwloc_free_object_siblings_and_children.exit78, label %.lr.ph.i75, !llvm.loop !89

hwloc_free_object_siblings_and_children.exit78:   ; preds = %.lr.ph.i75, %57
  call void @llvm.lifetime.end.p0(i64 8, ptr nonnull %6)
  store ptr null, ptr %58, align 8, !tbaa !59
  br label %60

60:                                               ; preds = %hwloc_free_object_siblings_and_children.exit78, %55
  tail call fastcc void @unlink_and_free_single_object(ptr noundef nonnull %2)
  %61 = getelementptr inbounds nuw i8, ptr %0, i64 208
  store i64 1, ptr %61, align 8, !tbaa !60
  br label %62

62:                                               ; preds = %47, %60, %43, %40, %.loopexit
  ret void
}